; Function Attrs: mustprogress uwtable
define dso_local noundef zeroext i1 @_ZNK9Statement11has_edge_inEbb(ptr noundef nonnull readonly align 8 dereferenceable(32) %0, i1 noundef zeroext %1, i1 noundef zeroext %2) local_unnamed_addr #4 align 2 {
  %4 = getelementptr inbounds i8, ptr %0, i64 16
  %5 = load ptr, ptr %4, align 8
  %.not = icmp eq ptr %5, null
  br i1 %.not, label %.loopexit, label %6

6:                                                ; preds = %3
  %7 = tail call noundef ptr @_Z21get_fact_mgr_for_funcPK8Function(ptr noundef nonnull %5)
  %8 = getelementptr inbounds i8, ptr %7, i64 336
  %9 = getelementptr inbounds i8, ptr %7, i64 344
  %10 = load ptr, ptr %9, align 8
  %11 = load ptr, ptr %8, align 8
  %.not16 = icmp eq ptr %10, %11
  br i1 %.not16, label %.loopexit, label %.lr.ph.preheader

.lr.ph.preheader:                                 ; preds = %6
  %12 = ptrtoint ptr %10 to i64
  %13 = ptrtoint ptr %11 to i64
  %14 = sub i64 %12, %13
  %15 = ashr exact i64 %14, 3
  %umax = tail call i64 @llvm.umax.i64(i64 %15, i64 1)
  br label %.lr.ph

.lr.ph:                                           ; preds = %.lr.ph.preheader, %33
  %.01113 = phi i64 [ %34, %33 ], [ 0, %.lr.ph.preheader ]
  %16 = getelementptr inbounds ptr, ptr %11, i64 %.01113
  %17 = load ptr, ptr %16, align 8
  %18 = getelementptr inbounds i8, ptr %17, i64 16
  %19 = load ptr, ptr %18, align 8
  %20 = icmp eq ptr %19, %0
  br i1 %20, label %21, label %33

21:                                               ; preds = %.lr.ph
  %22 = getelementptr inbounds i8, ptr %17, i64 25
  %23 = load i8, ptr %22, align 1
  %24 = and i8 %23, 1
  %25 = icmp eq i8 %24, 0
  %26 = xor i1 %25, %2
  br i1 %26, label %27, label %33

27:                                               ; preds = %21
  %28 = getelementptr inbounds i8, ptr %17, i64 24
  %29 = load i8, ptr %28, align 8
  %30 = and i8 %29, 1
  %31 = icmp eq i8 %30, 0
  %32 = xor i1 %31, %1
  br i1 %32, label %.loopexit, label %33

33:                                               ; preds = %.lr.ph, %21, %27
  %34 = add nuw i64 %.01113, 1
  %exitcond.not = icmp eq i64 %34, %umax
  br i1 %exitcond.not, label %.loopexit, label %.lr.ph, !llvm.loop !25

.loopexit:                                        ; preds = %27, %33, %6, %3
  %.0 = phi i1 [ false, %3 ], [ false, %6 ], [ true, %27 ], [ false, %33 ]
  ret i1 %.0
}